; ModuleID = 'source-C-CXX/41/676.c'
source_filename = "source-C-CXX/41/676.c"
target datalayout = "e-m:e-p270:32:32-p271:32:32-p272:64:64-i64:64-f80:128-n8:16:32:64-S128"
target triple = "x86_64-pc-linux-gnu"

@.str = private unnamed_addr constant [4 x i8] c"%ld\00", align 1
@.str.1 = private unnamed_addr constant [5 x i8] c" %ld\00", align 1

; Function Attrs: nofree nounwind sspstrong uwtable
define dso_local void @main() local_unnamed_addr #0 {
  %1 = alloca i64, align 8
  %2 = alloca [100000 x i64], align 16
  %3 = alloca i64, align 8
  %4 = bitcast i64* %1 to i8*
  call void @llvm.lifetime.start.p0i8(i64 8, i8* nonnull %4) #4
  %5 = bitcast [100000 x i64]* %2 to i8*
  call void @llvm.lifetime.start.p0i8(i64 800000, i8* nonnull %5) #4
  %6 = bitcast i64* %3 to i8*
  call void @llvm.lifetime.start.p0i8(i64 8, i8* nonnull %6) #4
  %7 = call i32 (i8*, ...) @__isoc99_scanf(i8* getelementptr inbounds ([4 x i8], [4 x i8]* @.str, i64 0, i64 0), i64* nonnull %1)
  %8 = load i64, i64* %1, align 8, !tbaa !5
  %9 = icmp sgt i64 %8, 0
  br i1 %9, label %10, label %17

10:                                               ; preds = %0, %10
  %11 = phi i64 [ %14, %10 ], [ 0, %0 ]
  %12 = getelementptr inbounds [100000 x i64], [100000 x i64]* %2, i64 0, i64 %11
  %13 = call i32 (i8*, ...) @__isoc99_scanf(i8* getelementptr inbounds ([4 x i8], [4 x i8]* @.str, i64 0, i64 0), i64* nonnull %12)
  %14 = add nuw nsw i64 %11, 1
  %15 = load i64, i64* %1, align 8, !tbaa !5
  %16 = icmp slt i64 %14, %15
  br i1 %16, label %10, label %17, !llvm.loop !9

17:                                               ; preds = %10, %0
  %18 = call i32 (i8*, ...) @__isoc99_scanf(i8* getelementptr inbounds ([4 x i8], [4 x i8]* @.str, i64 0, i64 0), i64* nonnull %3)
  %19 = load i64, i64* %1, align 8, !tbaa !5
  %20 = load i64, i64* %3, align 8
  %21 = icmp sgt i64 %19, 0
  br i1 %21, label %22, label %30

22:                                               ; preds = %17, %27
  %23 = phi i64 [ %28, %27 ], [ 0, %17 ]
  %24 = getelementptr inbounds [100000 x i64], [100000 x i64]* %2, i64 0, i64 %23
  %25 = load i64, i64* %24, align 8, !tbaa !5
  %26 = icmp eq i64 %25, %20
  br i1 %26, label %27, label %30

27:                                               ; preds = %22
  %28 = add nuw nsw i64 %23, 1
  %29 = icmp eq i64 %28, %19
  br i1 %29, label %30, label %22, !llvm.loop !11

30:                                               ; preds = %27, %22, %17
  %31 = phi i64 [ 0, %17 ], [ %23, %22 ], [ %19, %27 ]
  %32 = getelementptr inbounds [100000 x i64], [100000 x i64]* %2, i64 0, i64 %31
  %33 = load i64, i64* %32, align 8, !tbaa !5
  %34 = call i32 (i8*, ...) @printf(i8* nonnull dereferenceable(1) getelementptr inbounds ([4 x i8], [4 x i8]* @.str, i64 0, i64 0), i64 %33)
  %35 = add nuw nsw i64 %31, 1
  %36 = load i64, i64* %1, align 8, !tbaa !5
  %37 = icmp slt i64 %35, %36
  br i1 %37, label %38, label %52

38:                                               ; preds = %30, %48
  %39 = phi i64 [ %49, %48 ], [ %36, %30 ]
  %40 = phi i64 [ %50, %48 ], [ %35, %30 ]
  %41 = getelementptr inbounds [100000 x i64], [100000 x i64]* %2, i64 0, i64 %40
  %42 = load i64, i64* %41, align 8, !tbaa !5
  %43 = load i64, i64* %3, align 8, !tbaa !5
  %44 = icmp eq i64 %42, %43
  br i1 %44, label %48, label %45

45:                                               ; preds = %38
  %46 = call i32 (i8*, ...) @printf(i8* nonnull dereferenceable(1) getelementptr inbounds ([5 x i8], [5 x i8]* @.str.1, i64 0, i64 0), i64 %42)
  %47 = load i64, i64* %1, align 8, !tbaa !5
  br label %48

48:                                               ; preds = %38, %45
  %49 = phi i64 [ %39, %38 ], [ %47, %45 ]
  %50 = add nuw nsw i64 %40, 1
  %51 = icmp slt i64 %50, %49
  br i1 %51, label %38, label %52, !llvm.loop !12

52:                                               ; preds = %48, %30
  %53 = call i32 @putchar(i32 10)
  call void @llvm.lifetime.end.p0i8(i64 8, i8* nonnull %6) #4
  call void @llvm.lifetime.end.p0i8(i64 800000, i8* nonnull %5) #4
  call void @llvm.lifetime.end.p0i8(i64 8, i8* nonnull %4) #4
  ret void
}

; Function Attrs: argmemonly mustprogress nofree nosync nounwind willreturn
declare void @llvm.lifetime.start.p0i8(i64 immarg, i8* nocapture) #1

; Function Attrs: nofree nounwind
declare noundef i32 @__isoc99_scanf(i8* nocapture noundef readonly, ...) local_unnamed_addr #2

; Function Attrs: nofree nounwind
declare noundef i32 @printf(i8* nocapture noundef readonly, ...) local_unnamed_addr #2

; Function Attrs: argmemonly mustprogress nofree nosync nounwind willreturn
declare void @llvm.lifetime.end.p0i8(i64 immarg, i8* nocapture) #1

; Function Attrs: nofree nounwind
declare noundef i32 @putchar(i32 noundef) local_unnamed_addr #3


!llvm.module.flags = !{!0, !1, !2, !3}
!llvm.ident = !{!4}

!0 = !{i32 1, !"wchar_size", i32 4}
!1 = !{i32 7, !"PIC Level", i32 2}
!2 = !{i32 7, !"PIE Level", i32 2}
!3 = !{i32 7, !"uwtable", i32 1}
!4 = !{!"clang version 13.0.0"}
!5 = !{!6, !6, i64 0}
!6 = !{!"long", !7, i64 0}
!7 = !{!"omnipotent char", !8, i64 0}
!8 = !{!"Simple C/C++ TBAA"}
!9 = distinct !{!9, !10}
!10 = !{!"llvm.loop.mustprogress"}
!11 = distinct !{!11, !10}
!12 = distinct !{!12, !10}
